; Function Attrs: mustprogress uwtable
define void @cvInRange(ptr noundef %0, ptr noundef %1, ptr noundef %2, ptr noundef %3) local_unnamed_addr #0 personality ptr @__gxx_personality_v0 {
  %5 = alloca %"class.cv::Mat", align 8
  %6 = alloca %"class.cv::Mat", align 8
  %7 = alloca %"class.std::__cxx11::basic_string", align 8
  %8 = alloca %"class.std::allocator", align 1
  %9 = alloca %"class.cv::_InputArray", align 8
  %10 = alloca %"class.cv::_InputArray", align 8
  %11 = alloca %"class.cv::Mat", align 8
  %12 = alloca %"class.cv::_InputArray", align 8
  %13 = alloca %"class.cv::Mat", align 8
  %14 = alloca %"class.cv::_OutputArray", align 8
  call void @_ZN2cv10cvarrToMatEPKvbbiPNS_10AutoBufferIdLm136EEE(ptr dead_on_unwind nonnull writable sret(%"class.cv::Mat") align 8 %5, ptr noundef %0, i1 noundef zeroext false, i1 noundef zeroext true, i32 noundef 0, ptr noundef null)
  invoke void @_ZN2cv10cvarrToMatEPKvbbiPNS_10AutoBufferIdLm136EEE(ptr dead_on_unwind nonnull writable sret(%"class.cv::Mat") align 8 %6, ptr noundef %3, i1 noundef zeroext false, i1 noundef zeroext true, i32 noundef 0, ptr noundef null)
          to label %15 unwind label %23

15:                                               ; preds = %4
  %16 = getelementptr inbounds i8, ptr %5, i64 64
  %17 = getelementptr inbounds i8, ptr %6, i64 64
  %18 = call noundef zeroext i1 @_ZNK2cv7MatSizeeqERKS0_(ptr noundef nonnull align 8 dereferenceable(8) %16, ptr noundef nonnull align 8 dereferenceable(8) %17) #18
  br i1 %18, label %19, label %25

19:                                               ; preds = %15
  %20 = load i32, ptr %6, align 8
  %21 = and i32 %20, 4095
  %22 = icmp eq i32 %21, 0
  br i1 %22, label %33, label %25

23:                                               ; preds = %4
  %24 = landingpad { ptr, i32 }
          cleanup
  br label %56

25:                                               ; preds = %19, %15
  call void @_ZNSaIcEC1Ev(ptr noundef nonnull align 1 dereferenceable(1) %8) #18
  invoke void @_ZNSt7__cxx1112basic_stringIcSt11char_traitsIcESaIcEEC1EPKcRKS3_(ptr noundef nonnull align 8 dereferenceable(32) %7, ptr noundef nonnull @.str.37, ptr noundef nonnull align 1 dereferenceable(1) %8)
          to label %26 unwind label %28

26:                                               ; preds = %25
  invoke void @_ZN2cv5errorEiRKNSt7__cxx1112basic_stringIcSt11char_traitsIcESaIcEEEPKcS9_i(i32 noundef -215, ptr noundef nonnull align 8 dereferenceable(32) %7, ptr noundef nonnull @__func__.cvInRange, ptr noundef nonnull @.str.1, i32 noundef 2159) #19
          to label %27 unwind label %30

27:                                               ; preds = %26
  unreachable

28:                                               ; preds = %25
  %29 = landingpad { ptr, i32 }
          cleanup
  br label %32

30:                                               ; preds = %26
  %31 = landingpad { ptr, i32 }
          cleanup
  call void @_ZNSt7__cxx1112basic_stringIcSt11char_traitsIcESaIcEED1Ev(ptr noundef nonnull align 8 dereferenceable(32) %7) #18
  br label %32

32:                                               ; preds = %30, %28
  %.pn = phi { ptr, i32 } [ %31, %30 ], [ %29, %28 ]
  call void @_ZNSaIcED1Ev(ptr noundef nonnull align 1 dereferenceable(1) %8) #18
  br label %55

33:                                               ; preds = %19
  %34 = getelementptr inbounds i8, ptr %9, i64 16
  store i32 0, ptr %34, align 8
  %35 = getelementptr inbounds i8, ptr %9, i64 20
  store i32 0, ptr %35, align 4
  store i32 16842752, ptr %9, align 8
  %36 = getelementptr inbounds i8, ptr %9, i64 8
  store ptr %5, ptr %36, align 8
  invoke void @_ZN2cv10cvarrToMatEPKvbbiPNS_10AutoBufferIdLm136EEE(ptr dead_on_unwind nonnull writable sret(%"class.cv::Mat") align 8 %11, ptr noundef %1, i1 noundef zeroext false, i1 noundef zeroext true, i32 noundef 0, ptr noundef null)
          to label %37 unwind label %48

37:                                               ; preds = %33
  %38 = getelementptr inbounds i8, ptr %10, i64 16
  store i32 0, ptr %38, align 8
  %39 = getelementptr inbounds i8, ptr %10, i64 20
  store i32 0, ptr %39, align 4
  store i32 16842752, ptr %10, align 8
  %40 = getelementptr inbounds i8, ptr %10, i64 8
  store ptr %11, ptr %40, align 8
  invoke void @_ZN2cv10cvarrToMatEPKvbbiPNS_10AutoBufferIdLm136EEE(ptr dead_on_unwind nonnull writable sret(%"class.cv::Mat") align 8 %13, ptr noundef %2, i1 noundef zeroext false, i1 noundef zeroext true, i32 noundef 0, ptr noundef null)
          to label %41 unwind label %50

41:                                               ; preds = %37
  %42 = getelementptr inbounds i8, ptr %12, i64 16
  store i32 0, ptr %42, align 8
  %43 = getelementptr inbounds i8, ptr %12, i64 20
  store i32 0, ptr %43, align 4
  store i32 16842752, ptr %12, align 8
  %44 = getelementptr inbounds i8, ptr %12, i64 8
  store ptr %13, ptr %44, align 8
  %45 = getelementptr inbounds i8, ptr %14, i64 8
  %46 = getelementptr inbounds i8, ptr %14, i64 16
  store i64 0, ptr %46, align 8
  store i32 33619968, ptr %14, align 8
  store ptr %6, ptr %45, align 8
  invoke void @_ZN2cv7inRangeERKNS_11_InputArrayES2_S2_RKNS_12_OutputArrayE(ptr noundef nonnull align 8 dereferenceable(24) %9, ptr noundef nonnull align 8 dereferenceable(24) %10, ptr noundef nonnull align 8 dereferenceable(24) %12, ptr noundef nonnull align 8 dereferenceable(24) %14)
          to label %47 unwind label %52

47:                                               ; preds = %41
  call void @_ZN2cv3MatD1Ev(ptr noundef nonnull align 8 dereferenceable(96) %13) #18
  call void @_ZN2cv3MatD1Ev(ptr noundef nonnull align 8 dereferenceable(96) %11) #18
  call void @_ZN2cv3MatD1Ev(ptr noundef nonnull align 8 dereferenceable(96) %6) #18
  call void @_ZN2cv3MatD1Ev(ptr noundef nonnull align 8 dereferenceable(96) %5) #18
  ret void

48:                                               ; preds = %33
  %49 = landingpad { ptr, i32 }
          cleanup
  br label %55

50:                                               ; preds = %37
  %51 = landingpad { ptr, i32 }
          cleanup
  br label %54

52:                                               ; preds = %41
  %53 = landingpad { ptr, i32 }
          cleanup
  call void @_ZN2cv3MatD1Ev(ptr noundef nonnull align 8 dereferenceable(96) %13) #18
  br label %54

54:                                               ; preds = %50, %52
  %.pn14.pn.pn.pn = phi { ptr, i32 } [ %53, %52 ], [ %51, %50 ]
  call void @_ZN2cv3MatD1Ev(ptr noundef nonnull align 8 dereferenceable(96) %11) #18
  br label %55

55:                                               ; preds = %48, %54, %32
  %.pn14.pn.pn.pn.pn.pn = phi { ptr, i32 } [ %.pn, %32 ], [ %.pn14.pn.pn.pn, %54 ], [ %49, %48 ]
  call void @_ZN2cv3MatD1Ev(ptr noundef nonnull align 8 dereferenceable(96) %6) #18
  br label %56

56:                                               ; preds = %55, %23
  %.pn14.pn.pn.pn.pn.pn.pn = phi { ptr, i32 } [ %.pn14.pn.pn.pn.pn.pn, %55 ], [ %24, %23 ]
  call void @_ZN2cv3MatD1Ev(ptr noundef nonnull align 8 dereferenceable(96) %5) #18
  resume { ptr, i32 } %.pn14.pn.pn.pn.pn.pn.pn
}